target datalayout = "e-m:e-p270:32:32-p271:32:32-p272:64:64-i64:64-i128:128-f80:128-n8:16:32:64-S128"
target triple = "x86_64-unknown-linux-gnu"

%"class.icu_75::OlsonTimeZone" = type { %"class.icu_75::BasicTimeZone", i16, i16, i16, ptr, ptr, ptr, i16, ptr, ptr, ptr, double, i32, ptr, ptr, ptr, i16, ptr, ptr, i16, ptr, %"struct.icu_75::UInitOnce" }
%"class.icu_75::BasicTimeZone" = type { %"class.icu_75::TimeZone" }
%"class.icu_75::TimeZone" = type { %"class.icu_75::UObject", %"class.icu_75::UnicodeString" }
%"class.icu_75::UObject" = type { ptr }
%"class.icu_75::UnicodeString" = type { %"class.icu_75::Replaceable", %"union.icu_75::UnicodeString::StackBufferOrFields" }
%"class.icu_75::Replaceable" = type { %"class.icu_75::UObject" }
%"union.icu_75::UnicodeString::StackBufferOrFields" = type { %struct.anon.0, [32 x i8] }
%struct.anon.0 = type { i16, i32, i32, ptr }
%"struct.icu_75::UInitOnce" = type { %"struct.std::atomic", i32 }
%"struct.std::atomic" = type { %"struct.std::__atomic_base" }
%"struct.std::__atomic_base" = type { i32 }

; Function Attrs: mustprogress nounwind uwtable
define noundef i64 @_ZNK6icu_7513OlsonTimeZone23transitionTimeInSecondsEs(ptr noundef nonnull align 8 dereferenceable(224) %this, i16 noundef signext %transIdx) #0 align 2 {
entry:
  %retval = alloca i64, align 8
  %this.addr = alloca ptr, align 8
  %transIdx.addr = alloca i16, align 2
  store ptr %this, ptr %this.addr, align 8
  store i16 %transIdx, ptr %transIdx.addr, align 2
  %this1 = load ptr, ptr %this.addr, align 8
  %0 = load i16, ptr %transIdx.addr, align 2
  %conv = sext i16 %0 to i32
  %transitionCountPre32 = getelementptr inbounds %"class.icu_75::OlsonTimeZone", ptr %this1, i32 0, i32 1
  %1 = load i16, ptr %transitionCountPre32, align 8
  %conv2 = sext i16 %1 to i32
  %cmp = icmp slt i32 %conv, %conv2
  br i1 %cmp, label %if.then, label %if.end

if.then:                                          ; preds = %entry
  %transitionTimesPre32 = getelementptr inbounds %"class.icu_75::OlsonTimeZone", ptr %this1, i32 0, i32 4
  %2 = load ptr, ptr %transitionTimesPre32, align 8
  %3 = load i16, ptr %transIdx.addr, align 2
  %conv3 = sext i16 %3 to i32
  %shl = shl i32 %conv3, 1
  %idxprom = sext i32 %shl to i64
  %arrayidx = getelementptr inbounds i32, ptr %2, i64 %idxprom
  %4 = load i32, ptr %arrayidx, align 4
  %conv4 = zext i32 %4 to i64
  %shl5 = shl i64 %conv4, 32
  %transitionTimesPre326 = getelementptr inbounds %"class.icu_75::OlsonTimeZone", ptr %this1, i32 0, i32 4
  %5 = load ptr, ptr %transitionTimesPre326, align 8
  %6 = load i16, ptr %transIdx.addr, align 2
  %conv7 = sext i16 %6 to i32
  %shl8 = shl i32 %conv7, 1
  %add = add nsw i32 %shl8, 1
  %idxprom9 = sext i32 %add to i64
  %arrayidx10 = getelementptr inbounds i32, ptr %5, i64 %idxprom9
  %7 = load i32, ptr %arrayidx10, align 4
  %conv11 = zext i32 %7 to i64
  %or = or i64 %shl5, %conv11
  store i64 %or, ptr %retval, align 8
  br label %return

if.end:                                           ; preds = %entry
  %transitionCountPre3212 = getelementptr inbounds %"class.icu_75::OlsonTimeZone", ptr %this1, i32 0, i32 1
  %8 = load i16, ptr %transitionCountPre3212, align 8
  %conv13 = sext i16 %8 to i32
  %9 = load i16, ptr %transIdx.addr, align 2
  %conv14 = sext i16 %9 to i32
  %sub = sub nsw i32 %conv14, %conv13
  %conv15 = trunc i32 %sub to i16
  store i16 %conv15, ptr %transIdx.addr, align 2
  %10 = load i16, ptr %transIdx.addr, align 2
  %conv16 = sext i16 %10 to i32
  %transitionCount32 = getelementptr inbounds %"class.icu_75::OlsonTimeZone", ptr %this1, i32 0, i32 2
  %11 = load i16, ptr %transitionCount32, align 2
  %conv17 = sext i16 %11 to i32
  %cmp18 = icmp slt i32 %conv16, %conv17
  br i1 %cmp18, label %if.then19, label %if.end23

if.then19:                                        ; preds = %if.end
  %transitionTimes32 = getelementptr inbounds %"class.icu_75::OlsonTimeZone", ptr %this1, i32 0, i32 5
  %12 = load ptr, ptr %transitionTimes32, align 8
  %13 = load i16, ptr %transIdx.addr, align 2
  %idxprom20 = sext i16 %13 to i64
  %arrayidx21 = getelementptr inbounds i32, ptr %12, i64 %idxprom20
  %14 = load i32, ptr %arrayidx21, align 4
  %conv22 = sext i32 %14 to i64
  store i64 %conv22, ptr %retval, align 8
  br label %return

if.end23:                                         ; preds = %if.end
  %transitionCount3224 = getelementptr inbounds %"class.icu_75::OlsonTimeZone", ptr %this1, i32 0, i32 2
  %15 = load i16, ptr %transitionCount3224, align 2
  %conv25 = sext i16 %15 to i32
  %16 = load i16, ptr %transIdx.addr, align 2
  %conv26 = sext i16 %16 to i32
  %sub27 = sub nsw i32 %conv26, %conv25
  %conv28 = trunc i32 %sub27 to i16
  store i16 %conv28, ptr %transIdx.addr, align 2
  %transitionTimesPost32 = getelementptr inbounds %"class.icu_75::OlsonTimeZone", ptr %this1, i32 0, i32 6
  %17 = load ptr, ptr %transitionTimesPost32, align 8
  %18 = load i16, ptr %transIdx.addr, align 2
  %conv29 = sext i16 %18 to i32
  %shl30 = shl i32 %conv29, 1
  %idxprom31 = sext i32 %shl30 to i64
  %arrayidx32 = getelementptr inbounds i32, ptr %17, i64 %idxprom31
  %19 = load i32, ptr %arrayidx32, align 4
  %conv33 = zext i32 %19 to i64
  %shl34 = shl i64 %conv33, 32
  %transitionTimesPost3235 = getelementptr inbounds %"class.icu_75::OlsonTimeZone", ptr %this1, i32 0, i32 6
  %20 = load ptr, ptr %transitionTimesPost3235, align 8
  %21 = load i16, ptr %transIdx.addr, align 2
  %conv36 = sext i16 %21 to i32
  %shl37 = shl i32 %conv36, 1
  %add38 = add nsw i32 %shl37, 1
  %idxprom39 = sext i32 %add38 to i64
  %arrayidx40 = getelementptr inbounds i32, ptr %20, i64 %idxprom39
  %22 = load i32, ptr %arrayidx40, align 4
  %conv41 = zext i32 %22 to i64
  %or42 = or i64 %shl34, %conv41
  store i64 %or42, ptr %retval, align 8
  br label %return

return:                                           ; preds = %if.end23, %if.then19, %if.then
  %23 = load i64, ptr %retval, align 8
  ret i64 %23
}