; Function Attrs: mustprogress nofree norecurse nosync nounwind willreturn memory(read, inaccessiblemem: none) uwtable
define noundef i64 @_ZNK6icu_7513OlsonTimeZone23transitionTimeInSecondsEs(ptr nocapture noundef nonnull readonly align 8 dereferenceable(224) %this, i16 noundef signext %transIdx) local_unnamed_addr #9 align 2 {
entry:
  %transitionCountPre32 = getelementptr inbounds i8, ptr %this, i64 72
  %0 = load i16, ptr %transitionCountPre32, align 8
  %cmp = icmp sgt i16 %0, %transIdx
  br i1 %cmp, label %if.then, label %if.end

if.then:                                          ; preds = %entry
  %conv = sext i16 %transIdx to i32
  %transitionTimesPre32 = getelementptr inbounds i8, ptr %this, i64 80
  %1 = load ptr, ptr %transitionTimesPre32, align 8
  %shl = shl nsw i32 %conv, 1
  %idxprom = sext i32 %shl to i64
  %arrayidx = getelementptr inbounds i32, ptr %1, i64 %idxprom
  %2 = load i32, ptr %arrayidx, align 4
  %conv4 = zext i32 %2 to i64
  %shl5 = shl nuw i64 %conv4, 32
  %add = or disjoint i32 %shl, 1
  %idxprom9 = sext i32 %add to i64
  %arrayidx10 = getelementptr inbounds i32, ptr %1, i64 %idxprom9
  %3 = load i32, ptr %arrayidx10, align 4
  %conv11 = zext i32 %3 to i64
  %or = or disjoint i64 %shl5, %conv11
  br label %return

if.end:                                           ; preds = %entry
  %sub = sub i16 %transIdx, %0
  %transitionCount32 = getelementptr inbounds i8, ptr %this, i64 74
  %4 = load i16, ptr %transitionCount32, align 2
  %cmp18 = icmp slt i16 %sub, %4
  br i1 %cmp18, label %if.then19, label %if.end23

if.then19:                                        ; preds = %if.end
  %transitionTimes32 = getelementptr inbounds i8, ptr %this, i64 88
  %5 = load ptr, ptr %transitionTimes32, align 8
  %idxprom20 = sext i16 %sub to i64
  %arrayidx21 = getelementptr inbounds i32, ptr %5, i64 %idxprom20
  %6 = load i32, ptr %arrayidx21, align 4
  %conv22 = sext i32 %6 to i64
  br label %return

if.end23:                                         ; preds = %if.end
  %sub27 = sub i16 %sub, %4
  %transitionTimesPost32 = getelementptr inbounds i8, ptr %this, i64 96
  %7 = load ptr, ptr %transitionTimesPost32, align 8
  %conv29 = sext i16 %sub27 to i32
  %shl30 = shl nsw i32 %conv29, 1
  %idxprom31 = sext i32 %shl30 to i64
  %arrayidx32 = getelementptr inbounds i32, ptr %7, i64 %idxprom31
  %8 = load i32, ptr %arrayidx32, align 4
  %conv33 = zext i32 %8 to i64
  %shl34 = shl nuw i64 %conv33, 32
  %add38 = or disjoint i32 %shl30, 1
  %idxprom39 = sext i32 %add38 to i64
  %arrayidx40 = getelementptr inbounds i32, ptr %7, i64 %idxprom39
  %9 = load i32, ptr %arrayidx40, align 4
  %conv41 = zext i32 %9 to i64
  %or42 = or disjoint i64 %shl34, %conv41
  br label %return

return:                                           ; preds = %if.end23, %if.then19, %if.then
  %retval.0 = phi i64 [ %or, %if.then ], [ %conv22, %if.then19 ], [ %or42, %if.end23 ]
  ret i64 %retval.0
}